target datalayout = "e-m:e-p270:32:32-p271:32:32-p272:64:64-i64:64-i128:128-f80:128-n8:16:32:64-S128"
target triple = "x86_64-pc-linux-gnu"

%struct._generic_SUNNonlinearSolver = type { ptr, ptr, ptr }
%struct._generic_SUNNonlinearSolver_Ops = type { ptr, ptr, ptr, ptr, ptr, ptr, ptr, ptr, ptr, ptr, ptr, ptr, ptr }
%struct.ARKodeARKStepMemRec = type { ptr, ptr, i32, i32, i32, i32, i32, i32, ptr, ptr, ptr, ptr, ptr, ptr, i32, i32, i32, i32, ptr, ptr, ptr, ptr, i32, ptr, double, double, double, double, i32, double, double, double, double, double, double, i32, i64, i32, i32, i32, ptr, ptr, ptr, ptr, ptr, ptr, i32, ptr, ptr, ptr, ptr, ptr, ptr, i32, i32, i64, i64, i64, i64, i64, ptr, ptr, i32, i32, i32, double, double, ptr, i32, ptr, ptr }

@__func__.arkStep_SetNonlinearSolver = private unnamed_addr constant [27 x i8] c"arkStep_SetNonlinearSolver\00", align 1
@.str = private unnamed_addr constant [127 x i8] c"generated/home/dtcxzyw/WorkSpace/Projects/compilers/llvm-opt-benchmark/bench/sundials/sundials/src/arkode/arkode_arkstep_nls.c\00", align 1
@.str.1 = private unnamed_addr constant [31 x i8] c"The NLS input must be non-NULL\00", align 1
@.str.2 = private unnamed_addr constant [41 x i8] c"NLS does not support required operations\00", align 1
@.str.3 = private unnamed_addr constant [41 x i8] c"Setting convergence test function failed\00", align 1
@.str.4 = private unnamed_addr constant [54 x i8] c"Setting maximum number of nonlinear iterations failed\00", align 1
@.str.5 = private unnamed_addr constant [38 x i8] c"The implicit ODE RHS function is NULL\00", align 1

; Function Attrs: nounwind uwtable
define i32 @arkStep_SetNonlinearSolver(ptr noundef %0, ptr noundef %1) #0 {
  %3 = alloca i32, align 4
  %4 = alloca ptr, align 8
  %5 = alloca ptr, align 8
  %6 = alloca ptr, align 8
  %7 = alloca i32, align 4
  %8 = alloca i32, align 4
  store ptr %0, ptr %4, align 8, !tbaa !3
  store ptr %1, ptr %5, align 8, !tbaa !8
  call void @llvm.lifetime.start.p0(i64 8, ptr %6) #4
  call void @llvm.lifetime.start.p0(i64 4, ptr %7) #4
  %9 = load ptr, ptr %4, align 8, !tbaa !3
  %10 = call i32 @arkStep_AccessStepMem(ptr noundef %9, ptr noundef @__func__.arkStep_SetNonlinearSolver, ptr noundef %6)
  store i32 %10, ptr %7, align 4, !tbaa !10
  %11 = load i32, ptr %7, align 4, !tbaa !10
  %12 = icmp ne i32 %11, 0
  br i1 %12, label %13, label %15

13:                                               ; preds = %2
  %14 = load i32, ptr %7, align 4, !tbaa !10
  store i32 %14, ptr %3, align 4
  store i32 1, ptr %8, align 4
  br label %98

15:                                               ; preds = %2
  %16 = load ptr, ptr %5, align 8, !tbaa !8
  %17 = icmp eq ptr %16, null
  br i1 %17, label %18, label %20

18:                                               ; preds = %15
  %19 = load ptr, ptr %4, align 8, !tbaa !3
  call void (ptr, i32, i32, ptr, ptr, ptr, ...) @arkProcessError(ptr noundef %19, i32 noundef -22, i32 noundef 48, ptr noundef @__func__.arkStep_SetNonlinearSolver, ptr noundef @.str, ptr noundef @.str.1)
  store i32 -22, ptr %3, align 4
  store i32 1, ptr %8, align 4
  br label %98

20:                                               ; preds = %15
  %21 = load ptr, ptr %5, align 8, !tbaa !8
  %22 = getelementptr inbounds nuw %struct._generic_SUNNonlinearSolver, ptr %21, i32 0, i32 1
  %23 = load ptr, ptr %22, align 8, !tbaa !12
  %24 = getelementptr inbounds nuw %struct._generic_SUNNonlinearSolver_Ops, ptr %23, i32 0, i32 0
  %25 = load ptr, ptr %24, align 8, !tbaa !16
  %26 = icmp eq ptr %25, null
  br i1 %26, label %41, label %27

27:                                               ; preds = %20
  %28 = load ptr, ptr %5, align 8, !tbaa !8
  %29 = getelementptr inbounds nuw %struct._generic_SUNNonlinearSolver, ptr %28, i32 0, i32 1
  %30 = load ptr, ptr %29, align 8, !tbaa !12
  %31 = getelementptr inbounds nuw %struct._generic_SUNNonlinearSolver_Ops, ptr %30, i32 0, i32 3
  %32 = load ptr, ptr %31, align 8, !tbaa !18
  %33 = icmp eq ptr %32, null
  br i1 %33, label %41, label %34

34:                                               ; preds = %27
  %35 = load ptr, ptr %5, align 8, !tbaa !8
  %36 = getelementptr inbounds nuw %struct._generic_SUNNonlinearSolver, ptr %35, i32 0, i32 1
  %37 = load ptr, ptr %36, align 8, !tbaa !12
  %38 = getelementptr inbounds nuw %struct._generic_SUNNonlinearSolver_Ops, ptr %37, i32 0, i32 5
  %39 = load ptr, ptr %38, align 8, !tbaa !19
  %40 = icmp eq ptr %39, null
  br i1 %40, label %41, label %43

41:                                               ; preds = %34, %27, %20
  %42 = load ptr, ptr %4, align 8, !tbaa !3
  call void (ptr, i32, i32, ptr, ptr, ptr, ...) @arkProcessError(ptr noundef %42, i32 noundef -22, i32 noundef 57, ptr noundef @__func__.arkStep_SetNonlinearSolver, ptr noundef @.str, ptr noundef @.str.2)
  store i32 -22, ptr %3, align 4
  store i32 1, ptr %8, align 4
  br label %98

43:                                               ; preds = %34
  %44 = load ptr, ptr %6, align 8, !tbaa !20
  %45 = getelementptr inbounds nuw %struct.ARKodeARKStepMemRec, ptr %44, i32 0, i32 21
  %46 = load ptr, ptr %45, align 8, !tbaa !22
  %47 = icmp ne ptr %46, null
  br i1 %47, label %48, label %58

48:                                               ; preds = %43
  %49 = load ptr, ptr %6, align 8, !tbaa !20
  %50 = getelementptr inbounds nuw %struct.ARKodeARKStepMemRec, ptr %49, i32 0, i32 22
  %51 = load i32, ptr %50, align 8, !tbaa !30
  %52 = icmp ne i32 %51, 0
  br i1 %52, label %53, label %58

53:                                               ; preds = %48
  %54 = load ptr, ptr %6, align 8, !tbaa !20
  %55 = getelementptr inbounds nuw %struct.ARKodeARKStepMemRec, ptr %54, i32 0, i32 21
  %56 = load ptr, ptr %55, align 8, !tbaa !22
  %57 = call i32 @SUNNonlinSolFree(ptr noundef %56)
  store i32 %57, ptr %7, align 4, !tbaa !10
  br label %58

58:                                               ; preds = %53, %48, %43
  %59 = load ptr, ptr %5, align 8, !tbaa !8
  %60 = load ptr, ptr %6, align 8, !tbaa !20
  %61 = getelementptr inbounds nuw %struct.ARKodeARKStepMemRec, ptr %60, i32 0, i32 21
  store ptr %59, ptr %61, align 8, !tbaa !22
  %62 = load ptr, ptr %6, align 8, !tbaa !20
  %63 = getelementptr inbounds nuw %struct.ARKodeARKStepMemRec, ptr %62, i32 0, i32 22
  store i32 0, ptr %63, align 8, !tbaa !30
  %64 = load ptr, ptr %6, align 8, !tbaa !20
  %65 = getelementptr inbounds nuw %struct.ARKodeARKStepMemRec, ptr %64, i32 0, i32 21
  %66 = load ptr, ptr %65, align 8, !tbaa !22
  %67 = load ptr, ptr %4, align 8, !tbaa !3
  %68 = call i32 @SUNNonlinSolSetConvTestFn(ptr noundef %66, ptr noundef @arkStep_NlsConvTest, ptr noundef %67)
  store i32 %68, ptr %7, align 4, !tbaa !10
  %69 = load i32, ptr %7, align 4, !tbaa !10
  %70 = icmp ne i32 %69, 0
  br i1 %70, label %71, label %73

71:                                               ; preds = %58
  %72 = load ptr, ptr %4, align 8, !tbaa !3
  call void (ptr, i32, i32, ptr, ptr, ptr, ...) @arkProcessError(ptr noundef %72, i32 noundef -22, i32 noundef 77, ptr noundef @__func__.arkStep_SetNonlinearSolver, ptr noundef @.str, ptr noundef @.str.3)
  store i32 -22, ptr %3, align 4
  store i32 1, ptr %8, align 4
  br label %98

73:                                               ; preds = %58
  %74 = load ptr, ptr %6, align 8, !tbaa !20
  %75 = getelementptr inbounds nuw %struct.ARKodeARKStepMemRec, ptr %74, i32 0, i32 21
  %76 = load ptr, ptr %75, align 8, !tbaa !22
  %77 = load ptr, ptr %6, align 8, !tbaa !20
  %78 = getelementptr inbounds nuw %struct.ARKodeARKStepMemRec, ptr %77, i32 0, i32 37
  %79 = load i32, ptr %78, align 8, !tbaa !31
  %80 = call i32 @SUNNonlinSolSetMaxIters(ptr noundef %76, i32 noundef %79)
  store i32 %80, ptr %7, align 4, !tbaa !10
  %81 = load i32, ptr %7, align 4, !tbaa !10
  %82 = icmp ne i32 %81, 0
  br i1 %82, label %83, label %85

83:                                               ; preds = %73
  %84 = load ptr, ptr %4, align 8, !tbaa !3
  call void (ptr, i32, i32, ptr, ptr, ptr, ...) @arkProcessError(ptr noundef %84, i32 noundef -22, i32 noundef 86, ptr noundef @__func__.arkStep_SetNonlinearSolver, ptr noundef @.str, ptr noundef @.str.4)
  store i32 -22, ptr %3, align 4
  store i32 1, ptr %8, align 4
  br label %98

85:                                               ; preds = %73
  %86 = load ptr, ptr %6, align 8, !tbaa !20
  %87 = getelementptr inbounds nuw %struct.ARKodeARKStepMemRec, ptr %86, i32 0, i32 1
  %88 = load ptr, ptr %87, align 8, !tbaa !32
  %89 = icmp ne ptr %88, null
  br i1 %89, label %92, label %90

90:                                               ; preds = %85
  %91 = load ptr, ptr %4, align 8, !tbaa !3
  call void (ptr, i32, i32, ptr, ptr, ptr, ...) @arkProcessError(ptr noundef %91, i32 noundef -22, i32 noundef 94, ptr noundef @__func__.arkStep_SetNonlinearSolver, ptr noundef @.str, ptr noundef @.str.5)
  store i32 -22, ptr %3, align 4
  store i32 1, ptr %8, align 4
  br label %98

92:                                               ; preds = %85
  %93 = load ptr, ptr %6, align 8, !tbaa !20
  %94 = getelementptr inbounds nuw %struct.ARKodeARKStepMemRec, ptr %93, i32 0, i32 1
  %95 = load ptr, ptr %94, align 8, !tbaa !32
  %96 = load ptr, ptr %6, align 8, !tbaa !20
  %97 = getelementptr inbounds nuw %struct.ARKodeARKStepMemRec, ptr %96, i32 0, i32 23
  store ptr %95, ptr %97, align 8, !tbaa !33
  store i32 0, ptr %3, align 4
  store i32 1, ptr %8, align 4
  br label %98

98:                                               ; preds = %92, %90, %83, %71, %41, %18, %13
  call void @llvm.lifetime.end.p0(i64 4, ptr %7) #4
  call void @llvm.lifetime.end.p0(i64 8, ptr %6) #4
  %99 = load i32, ptr %3, align 4
  ret i32 %99
}