; Function Attrs: nounwind uwtable
define i32 @arkStep_SetNonlinearSolver(ptr noundef %0, ptr noundef %1) local_unnamed_addr #0 {
  %3 = alloca ptr, align 8
  call void @llvm.lifetime.start.p0(i64 8, ptr nonnull %3) #5
  %4 = call i32 @arkStep_AccessStepMem(ptr noundef %0, ptr noundef nonnull @__func__.arkStep_SetNonlinearSolver, ptr noundef nonnull %3) #5
  %.not = icmp eq i32 %4, 0
  br i1 %.not, label %5, label %52

5:                                                ; preds = %2
  %6 = icmp eq ptr %1, null
  br i1 %6, label %7, label %8

7:                                                ; preds = %5
  call void (ptr, i32, i32, ptr, ptr, ptr, ...) @arkProcessError(ptr noundef %0, i32 noundef -22, i32 noundef 48, ptr noundef nonnull @__func__.arkStep_SetNonlinearSolver, ptr noundef nonnull @.str, ptr noundef nonnull @.str.1) #5
  br label %52

8:                                                ; preds = %5
  %9 = getelementptr inbounds nuw i8, ptr %1, i64 8
  %10 = load ptr, ptr %9, align 8, !tbaa !3
  %11 = load ptr, ptr %10, align 8, !tbaa !10
  %12 = icmp eq ptr %11, null
  br i1 %12, label %21, label %13

13:                                               ; preds = %8
  %14 = getelementptr inbounds nuw i8, ptr %10, i64 24
  %15 = load ptr, ptr %14, align 8, !tbaa !12
  %16 = icmp eq ptr %15, null
  br i1 %16, label %21, label %17

17:                                               ; preds = %13
  %18 = getelementptr inbounds nuw i8, ptr %10, i64 40
  %19 = load ptr, ptr %18, align 8, !tbaa !13
  %20 = icmp eq ptr %19, null
  br i1 %20, label %21, label %22

21:                                               ; preds = %17, %13, %8
  call void (ptr, i32, i32, ptr, ptr, ptr, ...) @arkProcessError(ptr noundef %0, i32 noundef -22, i32 noundef 57, ptr noundef nonnull @__func__.arkStep_SetNonlinearSolver, ptr noundef nonnull @.str, ptr noundef nonnull @.str.2) #5
  br label %52

22:                                               ; preds = %17
  %23 = load ptr, ptr %3, align 8, !tbaa !14
  %24 = getelementptr inbounds nuw i8, ptr %23, i64 128
  %25 = load ptr, ptr %24, align 8, !tbaa !16
  %.not20 = icmp eq ptr %25, null
  br i1 %.not20, label %31, label %26

26:                                               ; preds = %22
  %27 = getelementptr inbounds nuw i8, ptr %23, i64 136
  %28 = load i32, ptr %27, align 8, !tbaa !26
  %.not21 = icmp eq i32 %28, 0
  br i1 %.not21, label %31, label %29

29:                                               ; preds = %26
  %30 = call i32 @SUNNonlinSolFree(ptr noundef nonnull %25) #5
  %.pre = load ptr, ptr %3, align 8, !tbaa !14
  br label %31

31:                                               ; preds = %29, %26, %22
  %32 = phi ptr [ %.pre, %29 ], [ %23, %26 ], [ %23, %22 ]
  %33 = getelementptr inbounds nuw i8, ptr %32, i64 128
  store ptr %1, ptr %33, align 8, !tbaa !16
  %34 = getelementptr inbounds nuw i8, ptr %32, i64 136
  store i32 0, ptr %34, align 8, !tbaa !26
  %35 = call i32 @SUNNonlinSolSetConvTestFn(ptr noundef nonnull %1, ptr noundef nonnull @arkStep_NlsConvTest, ptr noundef %0) #5
  %.not22 = icmp eq i32 %35, 0
  br i1 %.not22, label %37, label %36

36:                                               ; preds = %31
  call void (ptr, i32, i32, ptr, ptr, ptr, ...) @arkProcessError(ptr noundef %0, i32 noundef -22, i32 noundef 77, ptr noundef nonnull @__func__.arkStep_SetNonlinearSolver, ptr noundef nonnull @.str, ptr noundef nonnull @.str.3) #5
  br label %52

37:                                               ; preds = %31
  %38 = load ptr, ptr %3, align 8, !tbaa !14
  %39 = getelementptr inbounds nuw i8, ptr %38, i64 128
  %40 = load ptr, ptr %39, align 8, !tbaa !16
  %41 = getelementptr inbounds nuw i8, ptr %38, i64 256
  %42 = load i32, ptr %41, align 8, !tbaa !27
  %43 = call i32 @SUNNonlinSolSetMaxIters(ptr noundef %40, i32 noundef %42) #5
  %.not23 = icmp eq i32 %43, 0
  br i1 %.not23, label %45, label %44

44:                                               ; preds = %37
  call void (ptr, i32, i32, ptr, ptr, ptr, ...) @arkProcessError(ptr noundef %0, i32 noundef -22, i32 noundef 86, ptr noundef nonnull @__func__.arkStep_SetNonlinearSolver, ptr noundef nonnull @.str, ptr noundef nonnull @.str.4) #5
  br label %52

45:                                               ; preds = %37
  %46 = load ptr, ptr %3, align 8, !tbaa !14
  %47 = getelementptr inbounds nuw i8, ptr %46, i64 8
  %48 = load ptr, ptr %47, align 8, !tbaa !28
  %.not24 = icmp eq ptr %48, null
  br i1 %.not24, label %49, label %50

49:                                               ; preds = %45
  call void (ptr, i32, i32, ptr, ptr, ptr, ...) @arkProcessError(ptr noundef %0, i32 noundef -22, i32 noundef 94, ptr noundef nonnull @__func__.arkStep_SetNonlinearSolver, ptr noundef nonnull @.str, ptr noundef nonnull @.str.5) #5
  br label %52

50:                                               ; preds = %45
  %51 = getelementptr inbounds nuw i8, ptr %46, i64 144
  store ptr %48, ptr %51, align 8, !tbaa !29
  br label %52

52:                                               ; preds = %2, %50, %49, %44, %36, %21, %7
  %.0 = phi i32 [ -22, %7 ], [ -22, %21 ], [ -22, %36 ], [ -22, %44 ], [ 0, %50 ], [ -22, %49 ], [ %4, %2 ]
  call void @llvm.lifetime.end.p0(i64 8, ptr nonnull %3) #5
  ret i32 %.0
}